target datalayout = "e-m:e-p270:32:32-p271:32:32-p272:64:64-i64:64-i128:128-f80:128-n8:16:32:64-S128"
target triple = "x86_64-pc-linux-gnu"

%struct.SDL_hid_device_info = type { ptr, i16, i16, ptr, i16, ptr, ptr, i16, i16, i32, i32, i32, i32, i32, ptr }

; Function Attrs: nounwind uwtable
define hidden void @SDL_hid_free_enumeration_REAL(ptr noundef %0) #0 {
  %2 = alloca ptr, align 8
  %3 = alloca ptr, align 8
  store ptr %0, ptr %2, align 8
  br label %4

4:                                                ; preds = %7, %1
  %5 = load ptr, ptr %2, align 8
  %6 = icmp ne ptr %5, null
  br i1 %6, label %7, label %25

7:                                                ; preds = %4
  call void @llvm.lifetime.start.p0(i64 8, ptr %3) #10
  %8 = load ptr, ptr %2, align 8
  %9 = getelementptr inbounds nuw %struct.SDL_hid_device_info, ptr %8, i32 0, i32 14
  %10 = load ptr, ptr %9, align 8
  store ptr %10, ptr %3, align 8
  %11 = load ptr, ptr %2, align 8
  %12 = getelementptr inbounds nuw %struct.SDL_hid_device_info, ptr %11, i32 0, i32 0
  %13 = load ptr, ptr %12, align 8
  call void @SDL_free_REAL(ptr noundef %13)
  %14 = load ptr, ptr %2, align 8
  %15 = getelementptr inbounds nuw %struct.SDL_hid_device_info, ptr %14, i32 0, i32 3
  %16 = load ptr, ptr %15, align 8
  call void @SDL_free_REAL(ptr noundef %16)
  %17 = load ptr, ptr %2, align 8
  %18 = getelementptr inbounds nuw %struct.SDL_hid_device_info, ptr %17, i32 0, i32 5
  %19 = load ptr, ptr %18, align 8
  call void @SDL_free_REAL(ptr noundef %19)
  %20 = load ptr, ptr %2, align 8
  %21 = getelementptr inbounds nuw %struct.SDL_hid_device_info, ptr %20, i32 0, i32 6
  %22 = load ptr, ptr %21, align 8
  call void @SDL_free_REAL(ptr noundef %22)
  %23 = load ptr, ptr %2, align 8
  call void @SDL_free_REAL(ptr noundef %23)
  %24 = load ptr, ptr %3, align 8
  store ptr %24, ptr %2, align 8
  call void @llvm.lifetime.end.p0(i64 8, ptr %3) #10
  br label %4, !llvm.loop !21

25:                                               ; preds = %4
  ret void
}